target datalayout = "e-m:e-p270:32:32-p271:32:32-p272:64:64-i64:64-i128:128-f80:128-n8:16:32:64-S128"
target triple = "x86_64-pc-linux-gnu"

%struct.ident_t = type { i32, i32, i32, i32, ptr }
%"struct.faiss::IndexFlatCodes" = type { %"struct.faiss::Index.base", i64, %"class.std::vector" }
%"struct.faiss::Index.base" = type <{ ptr, i32, [4 x i8], i64, i8, i8, [2 x i8], i32, float }>
%"class.std::vector" = type { %"struct.std::_Vector_base" }
%"struct.std::_Vector_base" = type { %"struct.std::_Vector_base<unsigned char, std::allocator<unsigned char>>::_Vector_impl" }
%"struct.std::_Vector_base<unsigned char, std::allocator<unsigned char>>::_Vector_impl" = type { %"struct.std::_Vector_base<unsigned char, std::allocator<unsigned char>>::_Vector_impl_data" }
%"struct.std::_Vector_base<unsigned char, std::allocator<unsigned char>>::_Vector_impl_data" = type { ptr, ptr, ptr }
%"struct.faiss::AdditiveQuantizer" = type <{ %"struct.faiss::Quantizer", i64, %"class.std::vector.0", %"class.std::vector.5", %"class.std::vector.0", i64, i64, i64, i8, i8, i8, [5 x i8], %"struct.faiss::IndexFlat1D", %"class.std::vector.5", i64, i32, float, float, [4 x i8] }>
%"struct.faiss::Quantizer" = type { ptr, i64, i64 }
%"class.std::vector.0" = type { %"struct.std::_Vector_base.1" }
%"struct.std::_Vector_base.1" = type { %"struct.std::_Vector_base<unsigned long, std::allocator<unsigned long>>::_Vector_impl" }
%"struct.std::_Vector_base<unsigned long, std::allocator<unsigned long>>::_Vector_impl" = type { %"struct.std::_Vector_base<unsigned long, std::allocator<unsigned long>>::_Vector_impl_data" }
%"struct.std::_Vector_base<unsigned long, std::allocator<unsigned long>>::_Vector_impl_data" = type { ptr, ptr, ptr }
%"struct.faiss::IndexFlat1D" = type { %"struct.faiss::IndexFlatL2", i8, %"class.std::vector.10" }
%"struct.faiss::IndexFlatL2" = type { %"struct.faiss::IndexFlat", %"class.std::vector.5" }
%"struct.faiss::IndexFlat" = type { %"struct.faiss::IndexFlatCodes" }
%"class.std::vector.10" = type { %"struct.std::_Vector_base.11" }
%"struct.std::_Vector_base.11" = type { %"struct.std::_Vector_base<long, std::allocator<long>>::_Vector_impl" }
%"struct.std::_Vector_base<long, std::allocator<long>>::_Vector_impl" = type { %"struct.std::_Vector_base<long, std::allocator<long>>::_Vector_impl_data" }
%"struct.std::_Vector_base<long, std::allocator<long>>::_Vector_impl_data" = type { ptr, ptr, ptr }
%"class.std::vector.5" = type { %"struct.std::_Vector_base.6" }
%"struct.std::_Vector_base.6" = type { %"struct.std::_Vector_base<float, std::allocator<float>>::_Vector_impl" }
%"struct.std::_Vector_base<float, std::allocator<float>>::_Vector_impl" = type { %"struct.std::_Vector_base<float, std::allocator<float>>::_Vector_impl_data" }
%"struct.std::_Vector_base<float, std::allocator<float>>::_Vector_impl_data" = type { ptr, ptr, ptr }
%"struct.faiss::ResidualQuantizer" = type { %"struct.faiss::AdditiveQuantizer.base", i32, i32, i32, i32, i32, %"struct.faiss::ProgressiveDimClusteringParameters", ptr, %"class.std::vector.5", %"class.std::vector.5" }
%"struct.faiss::AdditiveQuantizer.base" = type <{ %"struct.faiss::Quantizer", i64, %"class.std::vector.0", %"class.std::vector.5", %"class.std::vector.0", i64, i64, i64, i8, i8, i8, [5 x i8], %"struct.faiss::IndexFlat1D", %"class.std::vector.5", i64, i32, float, float }>
%"struct.faiss::ProgressiveDimClusteringParameters" = type <{ %"struct.faiss::ClusteringParameters", i32, i8, [3 x i8] }>
%"struct.faiss::ClusteringParameters" = type { i32, i32, i8, i8, i8, i8, i8, i32, i32, i32, i64 }
%"struct.faiss::AdditiveCoarseQuantizer" = type { %"struct.faiss::Index.base", ptr, %"class.std::vector.5" }
%"struct.faiss::ResidualCoarseQuantizer" = type <{ %"struct.faiss::AdditiveCoarseQuantizer", %"struct.faiss::ResidualQuantizer", float, [4 x i8] }>
%"struct.std::_Vector_base.44" = type { %"struct.std::_Vector_base<int, std::allocator<int>>::_Vector_impl" }
%"struct.std::_Vector_base<int, std::allocator<int>>::_Vector_impl" = type { %"struct.std::_Vector_base<int, std::allocator<int>>::_Vector_impl_data" }
%"struct.std::_Vector_base<int, std::allocator<int>>::_Vector_impl_data" = type { ptr, ptr, ptr }

@1 = private unnamed_addr constant %struct.ident_t { i32 0, i32 514, i32 0, i32 22, ptr @0 }, align 8

; Function Attrs: mustprogress nounwind uwtable
define linkonce_odr noundef ptr @_ZNKSt6vectorIiSaIiEE11_M_data_ptrIiEEPT_S4_(ptr noundef nonnull align 8 dereferenceable(24) %0, ptr noundef %1) #0 comdat align 2 {
  %3 = alloca ptr, align 8
  %4 = alloca ptr, align 8
  store ptr %0, ptr %3, align 8
  store ptr %1, ptr %4, align 8
  %5 = load ptr, ptr %4, align 8
  ret ptr %5
}

; Function Attrs: mustprogress nounwind uwtable
define linkonce_odr noundef ptr @_ZNKSt6vectorIfSaIfEE11_M_data_ptrIfEEPT_S4_(ptr noundef nonnull align 8 dereferenceable(24) %0, ptr noundef %1) #0 comdat align 2 {
  %3 = alloca ptr, align 8
  %4 = alloca ptr, align 8
  store ptr %0, ptr %3, align 8
  store ptr %1, ptr %4, align 8
  %5 = load ptr, ptr %4, align 8
  ret ptr %5
}

; Function Attrs: mustprogress nounwind uwtable
define linkonce_odr noundef nonnull align 8 dereferenceable(8) ptr @_ZNKSt6vectorImSaImEEixEm(ptr noundef nonnull align 8 dereferenceable(24) %0, i64 noundef %1) #0 comdat align 2 {
  %3 = alloca ptr, align 8
  %4 = alloca i64, align 8
  store ptr %0, ptr %3, align 8
  store i64 %1, ptr %4, align 8
  %5 = load ptr, ptr %3, align 8
  %6 = getelementptr inbounds %"struct.std::_Vector_base.1", ptr %5, i32 0, i32 0
  %7 = getelementptr inbounds %"struct.std::_Vector_base<unsigned long, std::allocator<unsigned long>>::_Vector_impl_data", ptr %6, i32 0, i32 0
  %8 = load ptr, ptr %7, align 8
  %9 = load i64, ptr %4, align 8
  %10 = getelementptr inbounds i64, ptr %8, i64 %9
  ret ptr %10
}

; Function Attrs: mustprogress nounwind uwtable
define linkonce_odr noundef ptr @_ZNSt6vectorIiSaIiEE4dataEv(ptr noundef nonnull align 8 dereferenceable(24) %0) #0 comdat align 2 {
  %2 = alloca ptr, align 8
  store ptr %0, ptr %2, align 8
  %3 = load ptr, ptr %2, align 8
  %4 = getelementptr inbounds %"struct.std::_Vector_base.44", ptr %3, i32 0, i32 0
  %5 = getelementptr inbounds %"struct.std::_Vector_base<int, std::allocator<int>>::_Vector_impl_data", ptr %4, i32 0, i32 0
  %6 = load ptr, ptr %5, align 8
  %7 = call noundef ptr @_ZNKSt6vectorIiSaIiEE11_M_data_ptrIiEEPT_S4_(ptr noundef nonnull align 8 dereferenceable(24) %3, ptr noundef %6) #11
  ret ptr %7
}

; Function Attrs: mustprogress nounwind uwtable
define linkonce_odr noundef ptr @_ZNSt6vectorIfSaIfEE4dataEv(ptr noundef nonnull align 8 dereferenceable(24) %0) #0 comdat align 2 {
  %2 = alloca ptr, align 8
  store ptr %0, ptr %2, align 8
  %3 = load ptr, ptr %2, align 8
  %4 = getelementptr inbounds %"struct.std::_Vector_base.6", ptr %3, i32 0, i32 0
  %5 = getelementptr inbounds %"struct.std::_Vector_base<float, std::allocator<float>>::_Vector_impl_data", ptr %4, i32 0, i32 0
  %6 = load ptr, ptr %5, align 8
  %7 = call noundef ptr @_ZNKSt6vectorIfSaIfEE11_M_data_ptrIfEEPT_S4_(ptr noundef nonnull align 8 dereferenceable(24) %3, ptr noundef %6) #11
  ret ptr %7
}

; Function Attrs: norecurse nounwind uwtable
define internal void @_ZNK5faiss23ResidualCoarseQuantizer6searchElPKflPfPlPKNS_16SearchParametersE.omp_outlined(ptr noalias noundef %0, ptr noalias noundef %1, ptr noundef nonnull align 8 dereferenceable(8) %2, ptr noundef nonnull align 8 dereferenceable(8) %3, ptr noundef nonnull align 8 dereferenceable(8) %4, ptr noundef nonnull align 8 dereferenceable(24) %5, ptr noundef nonnull align 4 dereferenceable(4) %6, ptr noundef nonnull align 8 dereferenceable(24) %7, ptr noundef %8, ptr noundef nonnull align 8 dereferenceable(8) %9) #10 {
  %11 = alloca ptr, align 8
  %12 = alloca ptr, align 8
  %13 = alloca ptr, align 8
  %14 = alloca ptr, align 8
  %15 = alloca ptr, align 8
  %16 = alloca ptr, align 8
  %17 = alloca ptr, align 8
  %18 = alloca ptr, align 8
  %19 = alloca ptr, align 8
  %20 = alloca ptr, align 8
  %21 = alloca i64, align 8
  %22 = alloca i64, align 8
  %23 = alloca i64, align 8
  %24 = alloca i64, align 8
  %25 = alloca i64, align 8
  %26 = alloca i64, align 8
  %27 = alloca i64, align 8
  %28 = alloca i32, align 4
  %29 = alloca i64, align 8
  %30 = alloca ptr, align 8
  %31 = alloca i64, align 8
  %32 = alloca i64, align 8
  %33 = alloca i32, align 4
  %34 = alloca i32, align 4
  store ptr %0, ptr %11, align 8
  store ptr %1, ptr %12, align 8
  store ptr %2, ptr %13, align 8
  store ptr %3, ptr %14, align 8
  store ptr %4, ptr %15, align 8
  store ptr %5, ptr %16, align 8
  store ptr %6, ptr %17, align 8
  store ptr %7, ptr %18, align 8
  store ptr %8, ptr %19, align 8
  store ptr %9, ptr %20, align 8
  %35 = load ptr, ptr %13, align 8
  %36 = load ptr, ptr %14, align 8
  %37 = load ptr, ptr %15, align 8
  %38 = load ptr, ptr %16, align 8
  %39 = load ptr, ptr %17, align 8
  %40 = load ptr, ptr %18, align 8
  %41 = load ptr, ptr %19, align 8
  %42 = load ptr, ptr %20, align 8
  %43 = load i64, ptr %35, align 8
  store i64 %43, ptr %22, align 8
  %44 = load i64, ptr %22, align 8
  %45 = sub nsw i64 %44, 0
  %46 = sdiv i64 %45, 1
  %47 = sub nsw i64 %46, 1
  store i64 %47, ptr %23, align 8
  store i64 0, ptr %24, align 8
  %48 = load i64, ptr %22, align 8
  %49 = icmp slt i64 0, %48
  br i1 %49, label %50, label %150

50:                                               ; preds = %10
  store i64 0, ptr %25, align 8
  %51 = load i64, ptr %23, align 8
  store i64 %51, ptr %26, align 8
  store i64 1, ptr %27, align 8
  store i32 0, ptr %28, align 4
  %52 = load ptr, ptr %11, align 8
  %53 = load i32, ptr %52, align 4
  call void @__kmpc_for_static_init_8(ptr @1, i32 %53, i32 34, ptr %28, ptr %25, ptr %26, ptr %27, i64 1, i64 1)
  %54 = load i64, ptr %26, align 8
  %55 = load i64, ptr %23, align 8
  %56 = icmp sgt i64 %54, %55
  br i1 %56, label %57, label %59

57:                                               ; preds = %50
  %58 = load i64, ptr %23, align 8
  br label %61

59:                                               ; preds = %50
  %60 = load i64, ptr %26, align 8
  br label %61

61:                                               ; preds = %59, %57
  %62 = phi i64 [ %58, %57 ], [ %60, %59 ]
  store i64 %62, ptr %26, align 8
  %63 = load i64, ptr %25, align 8
  store i64 %63, ptr %21, align 8
  br label %64

64:                                               ; preds = %143, %61
  %65 = load i64, ptr %21, align 8
  %66 = load i64, ptr %26, align 8
  %67 = icmp sle i64 %65, %66
  br i1 %67, label %68, label %146

68:                                               ; preds = %64
  %69 = load i64, ptr %21, align 8
  %70 = mul nsw i64 %69, 1
  %71 = add nsw i64 0, %70
  store i64 %71, ptr %29, align 8
  %72 = load ptr, ptr %36, align 8
  %73 = load i64, ptr %29, align 8
  %74 = load i64, ptr %37, align 8
  %75 = mul nsw i64 %73, %74
  %76 = getelementptr inbounds float, ptr %72, i64 %75
  %77 = call noundef ptr @_ZNSt6vectorIfSaIfEE4dataEv(ptr noundef nonnull align 8 dereferenceable(24) %38) #11
  %78 = load i32, ptr %39, align 4
  %79 = sext i32 %78 to i64
  %80 = load i64, ptr %29, align 8
  %81 = mul nsw i64 %79, %80
  %82 = getelementptr inbounds float, ptr %77, i64 %81
  %83 = load i64, ptr %37, align 8
  %84 = mul i64 %83, 4
  call void @llvm.memcpy.p0.p0.i64(ptr align 4 %76, ptr align 4 %82, i64 %84, i1 false)
  %85 = call noundef ptr @_ZNSt6vectorIiSaIiEE4dataEv(ptr noundef nonnull align 8 dereferenceable(24) %40) #11
  %86 = load i32, ptr %39, align 4
  %87 = sext i32 %86 to i64
  %88 = load i64, ptr %29, align 8
  %89 = mul nsw i64 %87, %88
  %90 = getelementptr inbounds %"struct.faiss::ResidualCoarseQuantizer", ptr %41, i32 0, i32 1
  %91 = getelementptr inbounds %"struct.faiss::AdditiveQuantizer", ptr %90, i32 0, i32 1
  %92 = load i64, ptr %91, align 8
  %93 = mul i64 %89, %92
  %94 = getelementptr inbounds i32, ptr %85, i64 %93
  store ptr %94, ptr %30, align 8
  store i64 0, ptr %31, align 8
  br label %95

95:                                               ; preds = %138, %68
  %96 = load i64, ptr %31, align 8
  %97 = load i64, ptr %37, align 8
  %98 = icmp slt i64 %96, %97
  br i1 %98, label %99, label %141

99:                                               ; preds = %95
  store i64 0, ptr %32, align 8
  store i32 0, ptr %33, align 4
  store i32 0, ptr %34, align 4
  br label %100

100:                                              ; preds = %126, %99
  %101 = load i32, ptr %34, align 4
  %102 = sext i32 %101 to i64
  %103 = getelementptr inbounds %"struct.faiss::ResidualCoarseQuantizer", ptr %41, i32 0, i32 1
  %104 = getelementptr inbounds %"struct.faiss::AdditiveQuantizer", ptr %103, i32 0, i32 1
  %105 = load i64, ptr %104, align 8
  %106 = icmp ult i64 %102, %105
  br i1 %106, label %107, label %129

107:                                              ; preds = %100
  %108 = load ptr, ptr %30, align 8
  %109 = getelementptr inbounds i32, ptr %108, i32 1
  store ptr %109, ptr %30, align 8
  %110 = load i32, ptr %108, align 4
  %111 = load i32, ptr %33, align 4
  %112 = shl i32 %110, %111
  %113 = sext i32 %112 to i64
  %114 = load i64, ptr %32, align 8
  %115 = or i64 %114, %113
  store i64 %115, ptr %32, align 8
  %116 = getelementptr inbounds %"struct.faiss::ResidualCoarseQuantizer", ptr %41, i32 0, i32 1
  %117 = getelementptr inbounds %"struct.faiss::AdditiveQuantizer", ptr %116, i32 0, i32 2
  %118 = load i32, ptr %34, align 4
  %119 = sext i32 %118 to i64
  %120 = call noundef nonnull align 8 dereferenceable(8) ptr @_ZNKSt6vectorImSaImEEixEm(ptr noundef nonnull align 8 dereferenceable(24) %117, i64 noundef %119) #11
  %121 = load i64, ptr %120, align 8
  %122 = load i32, ptr %33, align 4
  %123 = sext i32 %122 to i64
  %124 = add i64 %123, %121
  %125 = trunc i64 %124 to i32
  store i32 %125, ptr %33, align 4
  br label %126

126:                                              ; preds = %107
  %127 = load i32, ptr %34, align 4
  %128 = add nsw i32 %127, 1
  store i32 %128, ptr %34, align 4
  br label %100, !llvm.loop !42

129:                                              ; preds = %100
  %130 = load i64, ptr %32, align 8
  %131 = load ptr, ptr %42, align 8
  %132 = load i64, ptr %29, align 8
  %133 = load i64, ptr %37, align 8
  %134 = mul nsw i64 %132, %133
  %135 = load i64, ptr %31, align 8
  %136 = add nsw i64 %134, %135
  %137 = getelementptr inbounds i64, ptr %131, i64 %136
  store i64 %130, ptr %137, align 8
  br label %138

138:                                              ; preds = %129
  %139 = load i64, ptr %31, align 8
  %140 = add nsw i64 %139, 1
  store i64 %140, ptr %31, align 8
  br label %95, !llvm.loop !43

141:                                              ; preds = %95
  br label %142

142:                                              ; preds = %141
  br label %143

143:                                              ; preds = %142
  %144 = load i64, ptr %21, align 8
  %145 = add nsw i64 %144, 1
  store i64 %145, ptr %21, align 8
  br label %64

146:                                              ; preds = %64
  br label %147

147:                                              ; preds = %146
  %148 = load ptr, ptr %11, align 8
  %149 = load i32, ptr %148, align 4
  call void @__kmpc_for_static_fini(ptr @1, i32 %149)
  br label %150

150:                                              ; preds = %147, %10
  ret void
}