; Function Attrs: norecurse nounwind uwtable
define internal void @_ZNK5faiss23ResidualCoarseQuantizer6searchElPKflPfPlPKNS_16SearchParametersE.omp_outlined(ptr noalias nocapture noundef readonly %0, ptr noalias nocapture readnone %1, ptr nocapture noundef nonnull readonly align 8 dereferenceable(8) %2, ptr nocapture noundef nonnull readonly align 8 dereferenceable(8) %3, ptr nocapture noundef nonnull readonly align 8 dereferenceable(8) %4, ptr nocapture noundef nonnull readonly align 8 dereferenceable(24) %5, ptr nocapture noundef nonnull readonly align 4 dereferenceable(4) %6, ptr nocapture noundef nonnull readonly align 8 dereferenceable(24) %7, ptr nocapture noundef readonly %8, ptr nocapture noundef nonnull readonly align 8 dereferenceable(8) %9) #13 {
  %11 = alloca i64, align 8
  %12 = alloca i64, align 8
  %13 = alloca i64, align 8
  %14 = alloca i32, align 4
  %15 = load i64, ptr %2, align 8
  %16 = icmp sgt i64 %15, 0
  br i1 %16, label %17, label %69

17:                                               ; preds = %10
  %18 = add nsw i64 %15, -1
  store i64 0, ptr %11, align 8
  store i64 %18, ptr %12, align 8
  store i64 1, ptr %13, align 8
  store i32 0, ptr %14, align 4
  %19 = load i32, ptr %0, align 4
  call void @__kmpc_for_static_init_8(ptr nonnull @1, i32 %19, i32 34, ptr nonnull %14, ptr nonnull %11, ptr nonnull %12, ptr nonnull %13, i64 1, i64 1)
  %20 = load i64, ptr %12, align 8
  %21 = call i64 @llvm.smin.i64(i64 %20, i64 %18)
  store i64 %21, ptr %12, align 8
  %22 = load i64, ptr %11, align 8
  %.not46 = icmp sgt i64 %22, %21
  br i1 %.not46, label %._crit_edge50, label %.lr.ph49

.lr.ph49:                                         ; preds = %17
  %23 = getelementptr inbounds i8, ptr %8, i64 96
  %24 = getelementptr inbounds i8, ptr %8, i64 104
  %.pre = load i64, ptr %4, align 8
  br label %25

25:                                               ; preds = %.lr.ph49, %._crit_edge45
  %26 = phi i64 [ %.pre, %.lr.ph49 ], [ %66, %._crit_edge45 ]
  %.03647 = phi i64 [ %22, %.lr.ph49 ], [ %67, %._crit_edge45 ]
  %27 = load ptr, ptr %3, align 8
  %28 = mul nsw i64 %26, %.03647
  %29 = getelementptr inbounds float, ptr %27, i64 %28
  %30 = load ptr, ptr %5, align 8
  %31 = load i32, ptr %6, align 4
  %32 = sext i32 %31 to i64
  %33 = mul nsw i64 %.03647, %32
  %34 = getelementptr inbounds float, ptr %30, i64 %33
  %35 = shl i64 %26, 2
  call void @llvm.memcpy.p0.p0.i64(ptr align 4 %29, ptr align 4 %34, i64 %35, i1 false)
  %36 = load i64, ptr %4, align 8
  %37 = icmp sgt i64 %36, 0
  br i1 %37, label %.preheader.preheader, label %._crit_edge45

.preheader.preheader:                             ; preds = %25
  %38 = load ptr, ptr %7, align 8
  %39 = load i32, ptr %6, align 4
  %40 = sext i32 %39 to i64
  %41 = mul nsw i64 %.03647, %40
  %42 = load i64, ptr %23, align 8
  %43 = mul i64 %41, %42
  %44 = getelementptr inbounds i32, ptr %38, i64 %43
  br label %.preheader

.preheaderthread-pre-split:                       ; preds = %._crit_edge
  %.pr = load i64, ptr %23, align 8
  br label %.preheader

.preheader:                                       ; preds = %.preheaderthread-pre-split, %.preheader.preheader
  %45 = phi i64 [ %.pr, %.preheaderthread-pre-split ], [ %42, %.preheader.preheader ]
  %46 = phi i64 [ %64, %.preheaderthread-pre-split ], [ %36, %.preheader.preheader ]
  %.03444 = phi i64 [ %63, %.preheaderthread-pre-split ], [ 0, %.preheader.preheader ]
  %.03543 = phi ptr [ %.1.lcssa, %.preheaderthread-pre-split ], [ %44, %.preheader.preheader ]
  %.not51 = icmp eq i64 %45, 0
  br i1 %.not51, label %._crit_edge, label %.lr.ph

.lr.ph:                                           ; preds = %.preheader
  %47 = load ptr, ptr %24, align 8
  %48 = shl i64 %45, 2
  br label %49

49:                                               ; preds = %.lr.ph, %49
  %indvars.iv = phi i64 [ 0, %.lr.ph ], [ %indvars.iv.next, %49 ]
  %.03240 = phi i32 [ 0, %.lr.ph ], [ %58, %49 ]
  %.03339 = phi i64 [ 0, %.lr.ph ], [ %54, %49 ]
  %.138 = phi ptr [ %.03543, %.lr.ph ], [ %50, %49 ]
  %50 = getelementptr inbounds i8, ptr %.138, i64 4
  %51 = load i32, ptr %.138, align 4
  %52 = shl i32 %51, %.03240
  %53 = sext i32 %52 to i64
  %54 = or i64 %.03339, %53
  %55 = getelementptr inbounds i64, ptr %47, i64 %indvars.iv
  %56 = load i64, ptr %55, align 8
  %57 = trunc i64 %56 to i32
  %58 = add i32 %.03240, %57
  %indvars.iv.next = add nuw nsw i64 %indvars.iv, 1
  %exitcond.not = icmp eq i64 %indvars.iv.next, %45
  br i1 %exitcond.not, label %._crit_edge.loopexit, label %49, !llvm.loop !38

._crit_edge.loopexit:                             ; preds = %49
  %scevgep = getelementptr i8, ptr %.03543, i64 %48
  br label %._crit_edge

._crit_edge:                                      ; preds = %._crit_edge.loopexit, %.preheader
  %.1.lcssa = phi ptr [ %.03543, %.preheader ], [ %scevgep, %._crit_edge.loopexit ]
  %.033.lcssa = phi i64 [ 0, %.preheader ], [ %54, %._crit_edge.loopexit ]
  %59 = load ptr, ptr %9, align 8
  %60 = mul nsw i64 %46, %.03647
  %61 = getelementptr i64, ptr %59, i64 %60
  %62 = getelementptr i64, ptr %61, i64 %.03444
  store i64 %.033.lcssa, ptr %62, align 8
  %63 = add nuw nsw i64 %.03444, 1
  %64 = load i64, ptr %4, align 8
  %65 = icmp slt i64 %63, %64
  br i1 %65, label %.preheaderthread-pre-split, label %._crit_edge45, !llvm.loop !39

._crit_edge45:                                    ; preds = %._crit_edge, %25
  %66 = phi i64 [ %36, %25 ], [ %64, %._crit_edge ]
  %67 = add nsw i64 %.03647, 1
  %68 = load i64, ptr %12, align 8
  %.not.not = icmp slt i64 %.03647, %68
  br i1 %.not.not, label %25, label %._crit_edge50

._crit_edge50:                                    ; preds = %._crit_edge45, %17
  call void @__kmpc_for_static_fini(ptr nonnull @1, i32 %19)
  br label %69

69:                                               ; preds = %._crit_edge50, %10
  ret void
}